; Function Attrs: mustprogress nounwind uwtable
define hidden void @_ZN10PathStringC2EPKc(ptr nocapture noundef nonnull writeonly align 8 dereferenceable(8) %0, ptr noundef readonly %1) unnamed_addr #0 align 2 {
  %3 = icmp eq ptr %1, null
  br i1 %3, label %4, label %5

4:                                                ; preds = %2
  store ptr null, ptr %0, align 8
  br label %10

5:                                                ; preds = %2
  %6 = tail call i64 @strlen(ptr noundef nonnull dereferenceable(1) %1) #30
  %7 = add i64 %6, 1
  %8 = tail call noundef ptr @_Z12AllocateHeapm8MEMFLAGSN17AllocFailStrategy13AllocFailEnumE(i64 noundef %7, i8 noundef zeroext 19, i32 noundef 0) #31
  store ptr %8, ptr %0, align 8
  %9 = tail call ptr @strcpy(ptr noundef nonnull dereferenceable(1) %8, ptr noundef nonnull dereferenceable(1) %1) #31
  br label %10

10:                                               ; preds = %5, %4
  ret void
}